target datalayout = "e-m:e-p270:32:32-p271:32:32-p272:64:64-i64:64-i128:128-f80:128-n8:16:32:64-S128"
target triple = "x86_64-pc-linux-gnu"

%class.QPoint = type { i32, i32 }
%class.QLine = type { %class.QPoint, %class.QPoint }

; Function Attrs: mustprogress nounwind uwtable
define linkonce_odr void @_ZN5QLineC2Eiiii(ptr noundef nonnull align 4 dereferenceable(16) %0, i32 noundef %1, i32 noundef %2, i32 noundef %3, i32 noundef %4) unnamed_addr #2 comdat align 2 {
  %6 = alloca ptr, align 8
  %7 = alloca i32, align 4
  %8 = alloca i32, align 4
  %9 = alloca i32, align 4
  %10 = alloca i32, align 4
  store ptr %0, ptr %6, align 8
  store i32 %1, ptr %7, align 4
  store i32 %2, ptr %8, align 4
  store i32 %3, ptr %9, align 4
  store i32 %4, ptr %10, align 4
  %11 = load ptr, ptr %6, align 8
  %12 = getelementptr inbounds %class.QLine, ptr %11, i32 0, i32 0
  %13 = load i32, ptr %7, align 4
  %14 = load i32, ptr %8, align 4
  call void @_ZN6QPointC2Eii(ptr noundef nonnull align 4 dereferenceable(8) %12, i32 noundef %13, i32 noundef %14) #11
  %15 = getelementptr inbounds %class.QLine, ptr %11, i32 0, i32 1
  %16 = load i32, ptr %9, align 4
  %17 = load i32, ptr %10, align 4
  call void @_ZN6QPointC2Eii(ptr noundef nonnull align 4 dereferenceable(8) %15, i32 noundef %16, i32 noundef %17) #11
  ret void
}

; Function Attrs: mustprogress uwtable
define linkonce_odr void @_ZN8QPainter8drawLineEiiii(ptr noundef nonnull align 8 dereferenceable(8) %0, i32 noundef %1, i32 noundef %2, i32 noundef %3, i32 noundef %4) #0 comdat align 2 {
  %6 = alloca ptr, align 8
  %7 = alloca i32, align 4
  %8 = alloca i32, align 4
  %9 = alloca i32, align 4
  %10 = alloca i32, align 4
  %11 = alloca %class.QLine, align 4
  store ptr %0, ptr %6, align 8
  store i32 %1, ptr %7, align 4
  store i32 %2, ptr %8, align 4
  store i32 %3, ptr %9, align 4
  store i32 %4, ptr %10, align 4
  %12 = load ptr, ptr %6, align 8
  %13 = load i32, ptr %7, align 4
  %14 = load i32, ptr %8, align 4
  %15 = load i32, ptr %9, align 4
  %16 = load i32, ptr %10, align 4
  call void @_ZN5QLineC2Eiiii(ptr noundef nonnull align 4 dereferenceable(16) %11, i32 noundef %13, i32 noundef %14, i32 noundef %15, i32 noundef %16)
  call void @_ZN8QPainter9drawLinesEPK5QLinei(ptr noundef nonnull align 8 dereferenceable(8) %12, ptr noundef %11, i32 noundef 1)
  ret void
}

; Function Attrs: mustprogress nounwind uwtable
define linkonce_odr void @_ZN6QPointC2Eii(ptr noundef nonnull align 4 dereferenceable(8) %0, i32 noundef %1, i32 noundef %2) unnamed_addr #2 comdat align 2 {
  %4 = alloca ptr, align 8
  %5 = alloca i32, align 4
  %6 = alloca i32, align 4
  store ptr %0, ptr %4, align 8
  store i32 %1, ptr %5, align 4
  store i32 %2, ptr %6, align 4
  %7 = load ptr, ptr %4, align 8
  %8 = getelementptr inbounds %class.QPoint, ptr %7, i32 0, i32 0
  %9 = load i32, ptr %5, align 4
  store i32 %9, ptr %8, align 4
  %10 = getelementptr inbounds %class.QPoint, ptr %7, i32 0, i32 1
  %11 = load i32, ptr %6, align 4
  store i32 %11, ptr %10, align 4
  ret void
}

; Function Attrs: mustprogress nounwind uwtable
define linkonce_odr noundef i32 @_ZNK6QPoint1yEv(ptr noundef nonnull align 4 dereferenceable(8) %0) #2 comdat align 2 {
  %2 = alloca ptr, align 8
  store ptr %0, ptr %2, align 8
  %3 = load ptr, ptr %2, align 8
  %4 = getelementptr inbounds %class.QPoint, ptr %3, i32 0, i32 1
  %5 = load i32, ptr %4, align 4
  ret i32 %5
}

; Function Attrs: mustprogress nounwind uwtable
define linkonce_odr noundef i32 @_ZNK6QPoint1xEv(ptr noundef nonnull align 4 dereferenceable(8) %0) #2 comdat align 2 {
  %2 = alloca ptr, align 8
  store ptr %0, ptr %2, align 8
  %3 = load ptr, ptr %2, align 8
  %4 = getelementptr inbounds %class.QPoint, ptr %3, i32 0, i32 0
  %5 = load i32, ptr %4, align 4
  ret i32 %5
}

; Function Attrs: mustprogress uwtable
define void @_ZNK21RelatedPacketDelegate9drawArrowEP8QPainter6QPointS2_i(ptr noundef nonnull align 8 dereferenceable(36) %0, ptr noundef %1, i64 %2, i64 %3, i32 noundef %4) #0 align 2 {
  %6 = alloca %class.QPoint, align 4
  %7 = alloca %class.QPoint, align 4
  %8 = alloca ptr, align 8
  %9 = alloca ptr, align 8
  %10 = alloca i32, align 4
  %11 = alloca i32, align 4
  %12 = alloca [3 x %class.QPoint], align 16
  store i64 %2, ptr %6, align 4
  store i64 %3, ptr %7, align 4
  store ptr %0, ptr %8, align 8
  store ptr %1, ptr %9, align 8
  store i32 %4, ptr %10, align 4
  %13 = call noundef i32 @_ZNK6QPoint1xEv(ptr noundef nonnull align 4 dereferenceable(8) %7) #11
  %14 = call noundef i32 @_ZNK6QPoint1xEv(ptr noundef nonnull align 4 dereferenceable(8) %6) #11
  %15 = icmp sgt i32 %13, %14
  %16 = select i1 %15, i32 -1, i32 1
  store i32 %16, ptr %11, align 4
  %17 = getelementptr inbounds [3 x %class.QPoint], ptr %12, i64 0, i64 0
  call void @llvm.memcpy.p0.p0.i64(ptr align 8 %17, ptr align 4 %7, i64 8, i1 false)
  %18 = getelementptr inbounds %class.QPoint, ptr %17, i64 1
  %19 = call noundef i32 @_ZNK6QPoint1xEv(ptr noundef nonnull align 4 dereferenceable(8) %7) #11
  %20 = load i32, ptr %10, align 4
  %21 = load i32, ptr %11, align 4
  %22 = mul i32 %20, %21
  %23 = add i32 %19, %22
  %24 = call noundef i32 @_ZNK6QPoint1yEv(ptr noundef nonnull align 4 dereferenceable(8) %7) #11
  %25 = load i32, ptr %10, align 4
  %26 = sdiv i32 %25, 2
  %27 = add i32 %24, %26
  call void @_ZN6QPointC2Eii(ptr noundef nonnull align 4 dereferenceable(8) %18, i32 noundef %23, i32 noundef %27) #11
  %28 = getelementptr inbounds %class.QPoint, ptr %18, i64 1
  %29 = call noundef i32 @_ZNK6QPoint1xEv(ptr noundef nonnull align 4 dereferenceable(8) %7) #11
  %30 = load i32, ptr %10, align 4
  %31 = load i32, ptr %11, align 4
  %32 = mul i32 %30, %31
  %33 = add i32 %29, %32
  %34 = call noundef i32 @_ZNK6QPoint1yEv(ptr noundef nonnull align 4 dereferenceable(8) %7) #11
  %35 = load i32, ptr %10, align 4
  %36 = sdiv i32 %35, 2
  %37 = sub i32 %34, %36
  call void @_ZN6QPointC2Eii(ptr noundef nonnull align 4 dereferenceable(8) %28, i32 noundef %33, i32 noundef %37) #11
  %38 = load ptr, ptr %9, align 8
  %39 = call noundef i32 @_ZNK6QPoint1xEv(ptr noundef nonnull align 4 dereferenceable(8) %6) #11
  %40 = call noundef i32 @_ZNK6QPoint1yEv(ptr noundef nonnull align 4 dereferenceable(8) %6) #11
  %41 = call noundef i32 @_ZNK6QPoint1xEv(ptr noundef nonnull align 4 dereferenceable(8) %7) #11
  %42 = load i32, ptr %10, align 4
  %43 = load i32, ptr %11, align 4
  %44 = mul i32 %42, %43
  %45 = add i32 %41, %44
  %46 = call noundef i32 @_ZNK6QPoint1yEv(ptr noundef nonnull align 4 dereferenceable(8) %7) #11
  call void @_ZN8QPainter8drawLineEiiii(ptr noundef nonnull align 8 dereferenceable(8) %38, i32 noundef %39, i32 noundef %40, i32 noundef %45, i32 noundef %46)
  %47 = load ptr, ptr %9, align 8
  %48 = getelementptr inbounds [3 x %class.QPoint], ptr %12, i64 0, i64 0
  call void @_ZN8QPainter11drawPolygonEPK6QPointiN2Qt8FillRuleE(ptr noundef nonnull align 8 dereferenceable(8) %47, ptr noundef %48, i32 noundef 3, i32 noundef 0)
  ret void
}