; Function Attrs: mustprogress uwtable
define void @_ZNK21RelatedPacketDelegate9drawArrowEP8QPainter6QPointS2_i(ptr nocapture noundef nonnull readnone align 8 dereferenceable(36) %0, ptr noundef nonnull %1, i64 %2, i64 %3, i32 noundef %4) local_unnamed_addr #0 align 2 {
  %6 = alloca %class.QLine, align 4
  %7 = alloca [3 x %class.QPoint], align 16
  %.sroa.015.0.extract.trunc = trunc i64 %2 to i32
  %.sroa.3.0.extract.shift = lshr i64 %2, 32
  %.sroa.3.0.extract.trunc = trunc i64 %.sroa.3.0.extract.shift to i32
  %.sroa.0.0.extract.trunc = trunc i64 %3 to i32
  %.sroa.6.0.extract.shift = lshr i64 %3, 32
  %.sroa.6.0.extract.trunc = trunc i64 %.sroa.6.0.extract.shift to i32
  %8 = icmp sgt i32 %.sroa.0.0.extract.trunc, %.sroa.015.0.extract.trunc
  store i64 %3, ptr %7, align 16
  %9 = getelementptr inbounds i8, ptr %7, i64 8
  %10 = sub i32 0, %4
  %11 = select i1 %8, i32 %10, i32 %4
  %12 = add i32 %11, %.sroa.0.0.extract.trunc
  %13 = sdiv i32 %4, 2
  %14 = add i32 %13, %.sroa.6.0.extract.trunc
  store i32 %12, ptr %9, align 8
  %15 = getelementptr inbounds i8, ptr %7, i64 12
  store i32 %14, ptr %15, align 4
  %16 = getelementptr inbounds i8, ptr %7, i64 16
  %17 = sub i32 %.sroa.6.0.extract.trunc, %13
  store i32 %12, ptr %16, align 16
  %18 = getelementptr inbounds i8, ptr %7, i64 20
  store i32 %17, ptr %18, align 4
  call void @llvm.lifetime.start.p0(i64 16, ptr nonnull %6)
  store i32 %.sroa.015.0.extract.trunc, ptr %6, align 4
  %19 = getelementptr inbounds i8, ptr %6, i64 4
  store i32 %.sroa.3.0.extract.trunc, ptr %19, align 4
  %20 = getelementptr inbounds i8, ptr %6, i64 8
  store i32 %12, ptr %20, align 4
  %21 = getelementptr inbounds i8, ptr %6, i64 12
  store i32 %.sroa.6.0.extract.trunc, ptr %21, align 4
  call void @_ZN8QPainter9drawLinesEPK5QLinei(ptr noundef nonnull align 8 dereferenceable(8) %1, ptr noundef nonnull %6, i32 noundef 1)
  call void @llvm.lifetime.end.p0(i64 16, ptr nonnull %6)
  call void @_ZN8QPainter11drawPolygonEPK6QPointiN2Qt8FillRuleE(ptr noundef nonnull align 8 dereferenceable(8) %1, ptr noundef nonnull %7, i32 noundef 3, i32 noundef 0)
  ret void
}